target datalayout = "e-m:e-p270:32:32-p271:32:32-p272:64:64-i64:64-i128:128-f80:128-n8:16:32:64-S128"
target triple = "x86_64-pc-linux-gnu"

@.str.17 = private unnamed_addr constant [25 x i8] c"../openssl/test/bntest.c\00", align 1
@ctx = internal global ptr null, align 8
@.str.63 = private unnamed_addr constant [13 x i8] c"a = BN_new()\00", align 1
@.str.65 = private unnamed_addr constant [13 x i8] c"c = BN_new()\00", align 1
@.str.76 = private unnamed_addr constant [13 x i8] c"d = BN_new()\00", align 1
@.str.88 = private unnamed_addr constant [2 x i8] c"d\00", align 1
@.str.97 = private unnamed_addr constant [30 x i8] c"BN_bntest_rand(a, 1024, 0, 0)\00", align 1
@.str.507 = private unnamed_addr constant [16 x i8] c"b[0] = BN_new()\00", align 1
@.str.508 = private unnamed_addr constant [16 x i8] c"b[1] = BN_new()\00", align 1
@.str.509 = private unnamed_addr constant [27 x i8] c"BN_GF2m_arr2poly(p0, b[0])\00", align 1
@p0 = internal global [6 x i32] [i32 163, i32 7, i32 6, i32 3, i32 0, i32 -1], align 16
@.str.510 = private unnamed_addr constant [27 x i8] c"BN_GF2m_arr2poly(p1, b[1])\00", align 1
@p1 = internal global [4 x i32] [i32 193, i32 15, i32 0, i32 -1], align 16
@.str.526 = private unnamed_addr constant [33 x i8] c"BN_GF2m_mod_sqr(c, a, b[j], ctx)\00", align 1
@.str.527 = private unnamed_addr constant [14 x i8] c"BN_copy(d, a)\00", align 1
@.str.528 = private unnamed_addr constant [36 x i8] c"BN_GF2m_mod_mul(d, a, d, b[j], ctx)\00", align 1
@.str.529 = private unnamed_addr constant [21 x i8] c"BN_GF2m_add(d, c, d)\00", align 1

; Function Attrs: nounwind uwtable
define internal i32 @test_gf2m_sqr() #0 {
  %1 = alloca ptr, align 8
  %2 = alloca [2 x ptr], align 16
  %3 = alloca ptr, align 8
  %4 = alloca ptr, align 8
  %5 = alloca i32, align 4
  %6 = alloca i32, align 4
  %7 = alloca i32, align 4
  call void @llvm.lifetime.start.p0(i64 8, ptr %1) #7
  store ptr null, ptr %1, align 8, !tbaa !13
  call void @llvm.lifetime.start.p0(i64 16, ptr %2) #7
  call void @llvm.memset.p0.i64(ptr align 16 %2, i8 0, i64 16, i1 false)
  call void @llvm.lifetime.start.p0(i64 8, ptr %3) #7
  store ptr null, ptr %3, align 8, !tbaa !13
  call void @llvm.lifetime.start.p0(i64 8, ptr %4) #7
  store ptr null, ptr %4, align 8, !tbaa !13
  call void @llvm.lifetime.start.p0(i64 4, ptr %5) #7
  call void @llvm.lifetime.start.p0(i64 4, ptr %6) #7
  call void @llvm.lifetime.start.p0(i64 4, ptr %7) #7
  store i32 0, ptr %7, align 4, !tbaa !4
  %8 = call ptr @BN_new()
  store ptr %8, ptr %1, align 8, !tbaa !13
  %9 = call i32 @test_ptr(ptr noundef @.str.17, i32 noundef 867, ptr noundef @.str.63, ptr noundef %8)
  %10 = icmp ne i32 %9, 0
  br i1 %10, label %11, label %29

11:                                               ; preds = %0
  %12 = call ptr @BN_new()
  %13 = getelementptr inbounds [2 x ptr], ptr %2, i64 0, i64 0
  store ptr %12, ptr %13, align 16, !tbaa !13
  %14 = call i32 @test_ptr(ptr noundef @.str.17, i32 noundef 868, ptr noundef @.str.507, ptr noundef %12)
  %15 = icmp ne i32 %14, 0
  br i1 %15, label %16, label %29

16:                                               ; preds = %11
  %17 = call ptr @BN_new()
  %18 = getelementptr inbounds [2 x ptr], ptr %2, i64 0, i64 1
  store ptr %17, ptr %18, align 8, !tbaa !13
  %19 = call i32 @test_ptr(ptr noundef @.str.17, i32 noundef 869, ptr noundef @.str.508, ptr noundef %17)
  %20 = icmp ne i32 %19, 0
  br i1 %20, label %21, label %29

21:                                               ; preds = %16
  %22 = call ptr @BN_new()
  store ptr %22, ptr %3, align 8, !tbaa !13
  %23 = call i32 @test_ptr(ptr noundef @.str.17, i32 noundef 870, ptr noundef @.str.65, ptr noundef %22)
  %24 = icmp ne i32 %23, 0
  br i1 %24, label %25, label %29

25:                                               ; preds = %21
  %26 = call ptr @BN_new()
  store ptr %26, ptr %4, align 8, !tbaa !13
  %27 = call i32 @test_ptr(ptr noundef @.str.17, i32 noundef 871, ptr noundef @.str.76, ptr noundef %26)
  %28 = icmp ne i32 %27, 0
  br i1 %28, label %30, label %29

29:                                               ; preds = %25, %21, %16, %11, %0
  br label %121

30:                                               ; preds = %25
  %31 = getelementptr inbounds [2 x ptr], ptr %2, i64 0, i64 0
  %32 = load ptr, ptr %31, align 16, !tbaa !13
  %33 = call i32 @BN_GF2m_arr2poly(ptr noundef @p0, ptr noundef %32)
  %34 = icmp ne i32 %33, 0
  %35 = zext i1 %34 to i32
  %36 = call i32 @test_true(ptr noundef @.str.17, i32 noundef 874, ptr noundef @.str.509, i32 noundef %35)
  %37 = icmp ne i32 %36, 0
  br i1 %37, label %38, label %46

38:                                               ; preds = %30
  %39 = getelementptr inbounds [2 x ptr], ptr %2, i64 0, i64 1
  %40 = load ptr, ptr %39, align 8, !tbaa !13
  %41 = call i32 @BN_GF2m_arr2poly(ptr noundef @p1, ptr noundef %40)
  %42 = icmp ne i32 %41, 0
  %43 = zext i1 %42 to i32
  %44 = call i32 @test_true(ptr noundef @.str.17, i32 noundef 875, ptr noundef @.str.510, i32 noundef %43)
  %45 = icmp ne i32 %44, 0
  br i1 %45, label %47, label %46

46:                                               ; preds = %38, %30
  br label %121

47:                                               ; preds = %38
  store i32 0, ptr %5, align 4, !tbaa !4
  br label %48

48:                                               ; preds = %117, %47
  %49 = load i32, ptr %5, align 4, !tbaa !4
  %50 = icmp slt i32 %49, 100
  br i1 %50, label %51, label %120

51:                                               ; preds = %48
  %52 = load ptr, ptr %1, align 8, !tbaa !13
  %53 = call i32 @BN_bntest_rand(ptr noundef %52, i32 noundef 1024, i32 noundef 0, i32 noundef 0)
  %54 = icmp ne i32 %53, 0
  %55 = zext i1 %54 to i32
  %56 = call i32 @test_true(ptr noundef @.str.17, i32 noundef 879, ptr noundef @.str.97, i32 noundef %55)
  %57 = icmp ne i32 %56, 0
  br i1 %57, label %59, label %58

58:                                               ; preds = %51
  br label %121

59:                                               ; preds = %51
  store i32 0, ptr %6, align 4, !tbaa !4
  br label %60

60:                                               ; preds = %113, %59
  %61 = load i32, ptr %6, align 4, !tbaa !4
  %62 = icmp slt i32 %61, 2
  br i1 %62, label %63, label %116

63:                                               ; preds = %60
  %64 = load ptr, ptr %3, align 8, !tbaa !13
  %65 = load ptr, ptr %1, align 8, !tbaa !13
  %66 = load i32, ptr %6, align 4, !tbaa !4
  %67 = sext i32 %66 to i64
  %68 = getelementptr inbounds [2 x ptr], ptr %2, i64 0, i64 %67
  %69 = load ptr, ptr %68, align 8, !tbaa !13
  %70 = load ptr, ptr @ctx, align 8, !tbaa !10
  %71 = call i32 @BN_GF2m_mod_sqr(ptr noundef %64, ptr noundef %65, ptr noundef %69, ptr noundef %70)
  %72 = icmp ne i32 %71, 0
  %73 = zext i1 %72 to i32
  %74 = call i32 @test_true(ptr noundef @.str.17, i32 noundef 882, ptr noundef @.str.526, i32 noundef %73)
  %75 = icmp ne i32 %74, 0
  br i1 %75, label %76, label %111

76:                                               ; preds = %63
  %77 = load ptr, ptr %4, align 8, !tbaa !13
  %78 = load ptr, ptr %1, align 8, !tbaa !13
  %79 = call ptr @BN_copy(ptr noundef %77, ptr noundef %78)
  %80 = icmp ne ptr %79, null
  %81 = zext i1 %80 to i32
  %82 = call i32 @test_true(ptr noundef @.str.17, i32 noundef 883, ptr noundef @.str.527, i32 noundef %81)
  %83 = icmp ne i32 %82, 0
  br i1 %83, label %84, label %111

84:                                               ; preds = %76
  %85 = load ptr, ptr %4, align 8, !tbaa !13
  %86 = load ptr, ptr %1, align 8, !tbaa !13
  %87 = load ptr, ptr %4, align 8, !tbaa !13
  %88 = load i32, ptr %6, align 4, !tbaa !4
  %89 = sext i32 %88 to i64
  %90 = getelementptr inbounds [2 x ptr], ptr %2, i64 0, i64 %89
  %91 = load ptr, ptr %90, align 8, !tbaa !13
  %92 = load ptr, ptr @ctx, align 8, !tbaa !10
  %93 = call i32 @BN_GF2m_mod_mul(ptr noundef %85, ptr noundef %86, ptr noundef %87, ptr noundef %91, ptr noundef %92)
  %94 = icmp ne i32 %93, 0
  %95 = zext i1 %94 to i32
  %96 = call i32 @test_true(ptr noundef @.str.17, i32 noundef 884, ptr noundef @.str.528, i32 noundef %95)
  %97 = icmp ne i32 %96, 0
  br i1 %97, label %98, label %111

98:                                               ; preds = %84
  %99 = load ptr, ptr %4, align 8, !tbaa !13
  %100 = load ptr, ptr %3, align 8, !tbaa !13
  %101 = load ptr, ptr %4, align 8, !tbaa !13
  %102 = call i32 @BN_GF2m_add(ptr noundef %99, ptr noundef %100, ptr noundef %101)
  %103 = icmp ne i32 %102, 0
  %104 = zext i1 %103 to i32
  %105 = call i32 @test_true(ptr noundef @.str.17, i32 noundef 885, ptr noundef @.str.529, i32 noundef %104)
  %106 = icmp ne i32 %105, 0
  br i1 %106, label %107, label %111

107:                                              ; preds = %98
  %108 = load ptr, ptr %4, align 8, !tbaa !13
  %109 = call i32 @test_BN_eq_zero(ptr noundef @.str.17, i32 noundef 887, ptr noundef @.str.88, ptr noundef %108)
  %110 = icmp ne i32 %109, 0
  br i1 %110, label %112, label %111

111:                                              ; preds = %107, %98, %84, %76, %63
  br label %121

112:                                              ; preds = %107
  br label %113

113:                                              ; preds = %112
  %114 = load i32, ptr %6, align 4, !tbaa !4
  %115 = add nsw i32 %114, 1
  store i32 %115, ptr %6, align 4, !tbaa !4
  br label %60, !llvm.loop !47

116:                                              ; preds = %60
  br label %117

117:                                              ; preds = %116
  %118 = load i32, ptr %5, align 4, !tbaa !4
  %119 = add nsw i32 %118, 1
  store i32 %119, ptr %5, align 4, !tbaa !4
  br label %48, !llvm.loop !48

120:                                              ; preds = %48
  store i32 1, ptr %7, align 4, !tbaa !4
  br label %121

121:                                              ; preds = %120, %111, %58, %46, %29
  %122 = load ptr, ptr %1, align 8, !tbaa !13
  call void @BN_free(ptr noundef %122)
  %123 = getelementptr inbounds [2 x ptr], ptr %2, i64 0, i64 0
  %124 = load ptr, ptr %123, align 16, !tbaa !13
  call void @BN_free(ptr noundef %124)
  %125 = getelementptr inbounds [2 x ptr], ptr %2, i64 0, i64 1
  %126 = load ptr, ptr %125, align 8, !tbaa !13
  call void @BN_free(ptr noundef %126)
  %127 = load ptr, ptr %3, align 8, !tbaa !13
  call void @BN_free(ptr noundef %127)
  %128 = load ptr, ptr %4, align 8, !tbaa !13
  call void @BN_free(ptr noundef %128)
  %129 = load i32, ptr %7, align 4, !tbaa !4
  call void @llvm.lifetime.end.p0(i64 4, ptr %7) #7
  call void @llvm.lifetime.end.p0(i64 4, ptr %6) #7
  call void @llvm.lifetime.end.p0(i64 4, ptr %5) #7
  call void @llvm.lifetime.end.p0(i64 8, ptr %4) #7
  call void @llvm.lifetime.end.p0(i64 8, ptr %3) #7
  call void @llvm.lifetime.end.p0(i64 16, ptr %2) #7
  call void @llvm.lifetime.end.p0(i64 8, ptr %1) #7
  ret i32 %129
}