; Function Attrs: nounwind uwtable
define internal range(i32 0, 2) i32 @test_gf2m_sqr() #1 {
  %1 = tail call ptr @BN_new() #8
  %2 = tail call i32 @test_ptr(ptr noundef nonnull @.str.17, i32 noundef 867, ptr noundef nonnull @.str.63, ptr noundef %1) #8
  %.not = icmp eq i32 %2, 0
  br i1 %.not, label %.loopexit, label %3

3:                                                ; preds = %0
  %4 = tail call ptr @BN_new() #8
  %5 = tail call i32 @test_ptr(ptr noundef nonnull @.str.17, i32 noundef 868, ptr noundef nonnull @.str.507, ptr noundef %4) #8
  %.not25 = icmp eq i32 %5, 0
  br i1 %.not25, label %.loopexit, label %6

6:                                                ; preds = %3
  %7 = tail call ptr @BN_new() #8
  %8 = tail call i32 @test_ptr(ptr noundef nonnull @.str.17, i32 noundef 869, ptr noundef nonnull @.str.508, ptr noundef %7) #8
  %.not26 = icmp eq i32 %8, 0
  br i1 %.not26, label %.loopexit, label %9

9:                                                ; preds = %6
  %10 = tail call ptr @BN_new() #8
  %11 = tail call i32 @test_ptr(ptr noundef nonnull @.str.17, i32 noundef 870, ptr noundef nonnull @.str.65, ptr noundef %10) #8
  %.not27 = icmp eq i32 %11, 0
  br i1 %.not27, label %.loopexit, label %12

12:                                               ; preds = %9
  %13 = tail call ptr @BN_new() #8
  %14 = tail call i32 @test_ptr(ptr noundef nonnull @.str.17, i32 noundef 871, ptr noundef nonnull @.str.76, ptr noundef %13) #8
  %.not28 = icmp eq i32 %14, 0
  br i1 %.not28, label %.loopexit, label %15

15:                                               ; preds = %12
  %16 = tail call i32 @BN_GF2m_arr2poly(ptr noundef nonnull @p0, ptr noundef %4) #8
  %17 = icmp ne i32 %16, 0
  %18 = zext i1 %17 to i32
  %19 = tail call i32 @test_true(ptr noundef nonnull @.str.17, i32 noundef 874, ptr noundef nonnull @.str.509, i32 noundef %18) #8
  %.not29 = icmp eq i32 %19, 0
  br i1 %.not29, label %.loopexit, label %20

20:                                               ; preds = %15
  %21 = tail call i32 @BN_GF2m_arr2poly(ptr noundef nonnull @p1, ptr noundef %7) #8
  %22 = icmp ne i32 %21, 0
  %23 = zext i1 %22 to i32
  %24 = tail call i32 @test_true(ptr noundef nonnull @.str.17, i32 noundef 875, ptr noundef nonnull @.str.510, i32 noundef %23) #8
  %.not30 = icmp eq i32 %24, 0
  br i1 %.not30, label %.loopexit, label %.preheader37

.preheader37:                                     ; preds = %20, %54
  %.02240 = phi i32 [ %55, %54 ], [ 0, %20 ]
  %25 = tail call i32 @BN_bntest_rand(ptr noundef %1, i32 noundef 1024, i32 noundef 0, i32 noundef 0) #8
  %26 = icmp ne i32 %25, 0
  %27 = zext i1 %26 to i32
  %28 = tail call i32 @test_true(ptr noundef nonnull @.str.17, i32 noundef 879, ptr noundef nonnull @.str.97, i32 noundef %27) #8
  %.not31 = icmp eq i32 %28, 0
  br i1 %.not31, label %.loopexit, label %.preheader

29:                                               ; preds = %52
  br i1 %30, label %.preheader, label %54, !llvm.loop !43

.preheader:                                       ; preds = %.preheader37, %29
  %30 = phi i1 [ false, %29 ], [ true, %.preheader37 ]
  %indvars.iv.sroa.phi.sroa.speculated = phi ptr [ %7, %29 ], [ %4, %.preheader37 ]
  %31 = load ptr, ptr @ctx, align 8, !tbaa !6
  %32 = tail call i32 @BN_GF2m_mod_sqr(ptr noundef %10, ptr noundef %1, ptr noundef %indvars.iv.sroa.phi.sroa.speculated, ptr noundef %31) #8
  %33 = icmp ne i32 %32, 0
  %34 = zext i1 %33 to i32
  %35 = tail call i32 @test_true(ptr noundef nonnull @.str.17, i32 noundef 882, ptr noundef nonnull @.str.526, i32 noundef %34) #8
  %.not32 = icmp eq i32 %35, 0
  br i1 %.not32, label %.loopexit, label %36

36:                                               ; preds = %.preheader
  %37 = tail call ptr @BN_copy(ptr noundef %13, ptr noundef %1) #8
  %38 = icmp ne ptr %37, null
  %39 = zext i1 %38 to i32
  %40 = tail call i32 @test_true(ptr noundef nonnull @.str.17, i32 noundef 883, ptr noundef nonnull @.str.527, i32 noundef %39) #8
  %.not33 = icmp eq i32 %40, 0
  br i1 %.not33, label %.loopexit, label %41

41:                                               ; preds = %36
  %42 = load ptr, ptr @ctx, align 8, !tbaa !6
  %43 = tail call i32 @BN_GF2m_mod_mul(ptr noundef %13, ptr noundef %1, ptr noundef %13, ptr noundef %indvars.iv.sroa.phi.sroa.speculated, ptr noundef %42) #8
  %44 = icmp ne i32 %43, 0
  %45 = zext i1 %44 to i32
  %46 = tail call i32 @test_true(ptr noundef nonnull @.str.17, i32 noundef 884, ptr noundef nonnull @.str.528, i32 noundef %45) #8
  %.not34 = icmp eq i32 %46, 0
  br i1 %.not34, label %.loopexit, label %47

47:                                               ; preds = %41
  %48 = tail call i32 @BN_GF2m_add(ptr noundef %13, ptr noundef %10, ptr noundef %13) #8
  %49 = icmp ne i32 %48, 0
  %50 = zext i1 %49 to i32
  %51 = tail call i32 @test_true(ptr noundef nonnull @.str.17, i32 noundef 885, ptr noundef nonnull @.str.529, i32 noundef %50) #8
  %.not35 = icmp eq i32 %51, 0
  br i1 %.not35, label %.loopexit, label %52

52:                                               ; preds = %47
  %53 = tail call i32 @test_BN_eq_zero(ptr noundef nonnull @.str.17, i32 noundef 887, ptr noundef nonnull @.str.88, ptr noundef %13) #8
  %.not36 = icmp eq i32 %53, 0
  br i1 %.not36, label %.loopexit, label %29

54:                                               ; preds = %29
  %55 = add nuw nsw i32 %.02240, 1
  %exitcond.not = icmp eq i32 %55, 100
  br i1 %exitcond.not, label %.loopexit, label %.preheader37, !llvm.loop !44

.loopexit:                                        ; preds = %54, %.preheader37, %.preheader, %36, %41, %47, %52, %15, %20, %0, %3, %6, %9, %12
  %.sroa.0.0 = phi ptr [ null, %0 ], [ %4, %3 ], [ %4, %6 ], [ %4, %9 ], [ %4, %12 ], [ %4, %15 ], [ %4, %20 ], [ %4, %52 ], [ %4, %47 ], [ %4, %41 ], [ %4, %36 ], [ %4, %.preheader ], [ %4, %.preheader37 ], [ %4, %54 ]
  %56 = phi ptr [ null, %0 ], [ null, %3 ], [ %7, %6 ], [ %7, %9 ], [ %7, %12 ], [ %7, %15 ], [ %7, %20 ], [ %7, %52 ], [ %7, %47 ], [ %7, %41 ], [ %7, %36 ], [ %7, %.preheader ], [ %7, %.preheader37 ], [ %7, %54 ]
  %.024 = phi ptr [ null, %0 ], [ null, %3 ], [ null, %6 ], [ %10, %9 ], [ %10, %12 ], [ %10, %15 ], [ %10, %20 ], [ %10, %52 ], [ %10, %47 ], [ %10, %41 ], [ %10, %36 ], [ %10, %.preheader ], [ %10, %.preheader37 ], [ %10, %54 ]
  %.023 = phi ptr [ null, %0 ], [ null, %3 ], [ null, %6 ], [ null, %9 ], [ %13, %12 ], [ %13, %15 ], [ %13, %20 ], [ %13, %52 ], [ %13, %47 ], [ %13, %41 ], [ %13, %36 ], [ %13, %.preheader ], [ %13, %.preheader37 ], [ %13, %54 ]
  %.0 = phi i32 [ 0, %0 ], [ 0, %3 ], [ 0, %6 ], [ 0, %9 ], [ 0, %12 ], [ 0, %15 ], [ 0, %20 ], [ 0, %52 ], [ 0, %47 ], [ 0, %41 ], [ 0, %36 ], [ 0, %.preheader ], [ 1, %54 ], [ 0, %.preheader37 ]
  tail call void @BN_free(ptr noundef %1) #8
  tail call void @BN_free(ptr noundef %.sroa.0.0) #8
  tail call void @BN_free(ptr noundef %56) #8
  tail call void @BN_free(ptr noundef %.024) #8
  tail call void @BN_free(ptr noundef %.023) #8
  ret i32 %.0
}